target datalayout = "e-m:e-p270:32:32-p271:32:32-p272:64:64-i64:64-i128:128-f80:128-n8:16:32:64-S128"
target triple = "x86_64-pc-linux-gnu"

%struct.oidset = type { %struct.kh_oid_set }
%struct.kh_oid_set = type { i32, i32, i32, i32, ptr, ptr, ptr }
%struct.refs_cb_data = type { ptr, ptr }
%struct.object_id = type { [32 x i8], i32 }

@the_repository = external global ptr, align 8

; Function Attrs: inlinehint nounwind uwtable
define internal i32 @oidset_size(ptr noundef %0) #5 {
  %2 = alloca ptr, align 8
  store ptr %0, ptr %2, align 8, !tbaa !195
  %3 = load ptr, ptr %2, align 8, !tbaa !195
  %4 = getelementptr inbounds nuw %struct.oidset, ptr %3, i32 0, i32 0
  %5 = getelementptr inbounds nuw %struct.kh_oid_set, ptr %4, i32 0, i32 1
  %6 = load i32, ptr %5, align 4, !tbaa !324
  ret i32 %6
}

; Function Attrs: nounwind uwtable
define internal i32 @add_ref_to_set(ptr noundef %0, ptr noundef %1, ptr noundef %2, i32 noundef %3, ptr noundef %4) #0 {
  %6 = alloca ptr, align 8
  %7 = alloca ptr, align 8
  %8 = alloca ptr, align 8
  %9 = alloca i32, align 4
  %10 = alloca ptr, align 8
  %11 = alloca %struct.object_id, align 4
  %12 = alloca ptr, align 8
  store ptr %0, ptr %6, align 8, !tbaa !65
  store ptr %1, ptr %7, align 8, !tbaa !65
  store ptr %2, ptr %8, align 8, !tbaa !113
  store i32 %3, ptr %9, align 4, !tbaa !4
  store ptr %4, ptr %10, align 8, !tbaa !78
  call void @llvm.lifetime.start.p0(i64 36, ptr %11) #12
  call void @llvm.lifetime.start.p0(i64 8, ptr %12) #12
  %13 = load ptr, ptr %10, align 8, !tbaa !78
  store ptr %13, ptr %12, align 8, !tbaa !189
  %14 = load ptr, ptr @the_repository, align 8, !tbaa !8
  %15 = load ptr, ptr %8, align 8, !tbaa !113
  %16 = call i32 @peel_iterated_oid(ptr noundef %14, ptr noundef %15, ptr noundef %11)
  %17 = icmp ne i32 %16, 0
  br i1 %17, label %19, label %18

18:                                               ; preds = %5
  store ptr %11, ptr %8, align 8, !tbaa !113
  br label %19

19:                                               ; preds = %18, %5
  %20 = load ptr, ptr @the_repository, align 8, !tbaa !8
  %21 = load ptr, ptr %8, align 8, !tbaa !113
  %22 = call i32 @oid_object_info(ptr noundef %20, ptr noundef %21, ptr noundef null)
  %23 = icmp eq i32 %22, 1
  br i1 %23, label %24, label %30

24:                                               ; preds = %19
  %25 = load ptr, ptr %12, align 8, !tbaa !189
  %26 = getelementptr inbounds nuw %struct.refs_cb_data, ptr %25, i32 0, i32 0
  %27 = load ptr, ptr %26, align 8, !tbaa !47
  %28 = load ptr, ptr %8, align 8, !tbaa !113
  %29 = call i32 @oidset_insert(ptr noundef %27, ptr noundef %28)
  br label %30

30:                                               ; preds = %24, %19
  %31 = load ptr, ptr %12, align 8, !tbaa !189
  %32 = getelementptr inbounds nuw %struct.refs_cb_data, ptr %31, i32 0, i32 1
  %33 = load ptr, ptr %32, align 8, !tbaa !51
  %34 = load ptr, ptr %12, align 8, !tbaa !189
  %35 = getelementptr inbounds nuw %struct.refs_cb_data, ptr %34, i32 0, i32 0
  %36 = load ptr, ptr %35, align 8, !tbaa !47
  %37 = call i32 @oidset_size(ptr noundef %36)
  %38 = sext i32 %37 to i64
  call void @display_progress(ptr noundef %33, i64 noundef %38)
  call void @llvm.lifetime.end.p0(i64 8, ptr %12) #12
  call void @llvm.lifetime.end.p0(i64 36, ptr %11) #12
  ret i32 0
}