; Function Attrs: nounwind uwtable
define internal noundef i32 @add_ref_to_set(ptr readnone captures(none) %0, ptr readnone captures(none) %1, ptr noundef %2, i32 %3, ptr noundef readonly captures(none) %4) #0 {
  %6 = alloca %struct.object_id, align 4
  call void @llvm.lifetime.start.p0(i64 36, ptr nonnull %6) #24
  %7 = load ptr, ptr @the_repository, align 8, !tbaa !4
  %8 = call i32 @peel_iterated_oid(ptr noundef %7, ptr noundef %2, ptr noundef nonnull %6) #24
  %.not = icmp eq i32 %8, 0
  %spec.select = select i1 %.not, ptr %6, ptr %2
  %9 = load ptr, ptr @the_repository, align 8, !tbaa !4
  %10 = call i32 @oid_object_info(ptr noundef %9, ptr noundef %spec.select, ptr noundef null) #24
  %11 = icmp eq i32 %10, 1
  br i1 %11, label %12, label %15

12:                                               ; preds = %5
  %13 = load ptr, ptr %4, align 8, !tbaa !43
  %14 = call i32 @oidset_insert(ptr noundef %13, ptr noundef %spec.select) #24
  br label %15

15:                                               ; preds = %12, %5
  %16 = getelementptr inbounds nuw i8, ptr %4, i64 8
  %17 = load ptr, ptr %16, align 8, !tbaa !48
  %18 = load ptr, ptr %4, align 8, !tbaa !43
  %19 = getelementptr i8, ptr %18, i64 4
  %.val = load i32, ptr %19, align 4, !tbaa !174
  %20 = sext i32 %.val to i64
  call void @display_progress(ptr noundef %17, i64 noundef %20) #24
  call void @llvm.lifetime.end.p0(i64 36, ptr nonnull %6) #24
  ret i32 0
}